target datalayout = "e-m:e-p270:32:32-p271:32:32-p272:64:64-i64:64-i128:128-f80:128-n8:16:32:64-S128"
target triple = "x86_64-pc-linux-gnu"

%struct._lv_global_t = type { i8, i8, %struct.lv_ll_t, ptr, ptr, %struct.lv_ll_t, i8, i32, i32, ptr, %struct.lv_ll_t, ptr, %struct.lv_ll_t, ptr, ptr, i32, ptr, i8, i32, i32, ptr, i32, %struct.lv_timer_state_t, %struct.lv_anim_state_t, %struct.lv_tick_state_t, %struct._lv_draw_buf_handlers_t, %struct._lv_draw_buf_handlers_t, %struct._lv_draw_buf_handlers_t, %struct.lv_ll_t, ptr, ptr, %struct.lv_draw_global_info_t, [4 x %struct.lv_draw_sw_mask_radius_circle_dsc_t], ptr, ptr, ptr, %struct.lv_tlsf_state_t, %struct.lv_ll_t, ptr, ptr, %struct.lv_style_t, i64, ptr, i32, ptr }
%struct.lv_timer_state_t = type { %struct.lv_ll_t, i8, i8, i8, i8, i32, i8, i32, i32, i32, i32, ptr, ptr }
%struct.lv_anim_state_t = type { i8, i8, ptr, %struct.lv_ll_t }
%struct.lv_tick_state_t = type { i32, i8, ptr, ptr }
%struct._lv_draw_buf_handlers_t = type { ptr, ptr, ptr, ptr, ptr, ptr }
%struct.lv_draw_global_info_t = type { ptr, i32, i32, i32, i32, i8 }
%struct.lv_draw_sw_mask_radius_circle_dsc_t = type { ptr, ptr, ptr, ptr, i32, i32, i32 }
%struct.lv_tlsf_state_t = type { ptr, i64, i64, %struct.lv_ll_t }
%struct.lv_ll_t = type { i32, ptr, ptr }
%struct.lv_style_t = type { ptr, i32, i8 }

@lv_global = external global %struct._lv_global_t, align 8

; Function Attrs: nounwind uwtable
define internal ptr @pointer_search_obj(ptr noundef %0, ptr noundef %1) #0 {
  %3 = alloca ptr, align 8
  %4 = alloca ptr, align 8
  %5 = alloca ptr, align 8
  store ptr %0, ptr %4, align 8, !tbaa !3
  store ptr %1, ptr %5, align 8, !tbaa !35
  %6 = load ptr, ptr %4, align 8, !tbaa !3
  %7 = call ptr @lv_display_get_layer_sys(ptr noundef %6)
  %8 = load ptr, ptr %5, align 8, !tbaa !35
  %9 = call ptr @lv_indev_search_obj(ptr noundef %7, ptr noundef %8)
  store ptr %9, ptr getelementptr inbounds nuw (%struct._lv_global_t, ptr @lv_global, i32 0, i32 14), align 8, !tbaa !76
  %10 = load ptr, ptr getelementptr inbounds nuw (%struct._lv_global_t, ptr @lv_global, i32 0, i32 14), align 8, !tbaa !76
  %11 = icmp ne ptr %10, null
  br i1 %11, label %12, label %14

12:                                               ; preds = %2
  %13 = load ptr, ptr getelementptr inbounds nuw (%struct._lv_global_t, ptr @lv_global, i32 0, i32 14), align 8, !tbaa !76
  store ptr %13, ptr %3, align 8
  br label %38

14:                                               ; preds = %2
  %15 = load ptr, ptr %4, align 8, !tbaa !3
  %16 = call ptr @lv_display_get_layer_top(ptr noundef %15)
  %17 = load ptr, ptr %5, align 8, !tbaa !35
  %18 = call ptr @lv_indev_search_obj(ptr noundef %16, ptr noundef %17)
  store ptr %18, ptr getelementptr inbounds nuw (%struct._lv_global_t, ptr @lv_global, i32 0, i32 14), align 8, !tbaa !76
  %19 = load ptr, ptr getelementptr inbounds nuw (%struct._lv_global_t, ptr @lv_global, i32 0, i32 14), align 8, !tbaa !76
  %20 = icmp ne ptr %19, null
  br i1 %20, label %21, label %23

21:                                               ; preds = %14
  %22 = load ptr, ptr getelementptr inbounds nuw (%struct._lv_global_t, ptr @lv_global, i32 0, i32 14), align 8, !tbaa !76
  store ptr %22, ptr %3, align 8
  br label %38

23:                                               ; preds = %14
  %24 = load ptr, ptr %4, align 8, !tbaa !3
  %25 = call ptr @lv_display_get_screen_active(ptr noundef %24)
  %26 = load ptr, ptr %5, align 8, !tbaa !35
  %27 = call ptr @lv_indev_search_obj(ptr noundef %25, ptr noundef %26)
  store ptr %27, ptr getelementptr inbounds nuw (%struct._lv_global_t, ptr @lv_global, i32 0, i32 14), align 8, !tbaa !76
  %28 = load ptr, ptr getelementptr inbounds nuw (%struct._lv_global_t, ptr @lv_global, i32 0, i32 14), align 8, !tbaa !76
  %29 = icmp ne ptr %28, null
  br i1 %29, label %30, label %32

30:                                               ; preds = %23
  %31 = load ptr, ptr getelementptr inbounds nuw (%struct._lv_global_t, ptr @lv_global, i32 0, i32 14), align 8, !tbaa !76
  store ptr %31, ptr %3, align 8
  br label %38

32:                                               ; preds = %23
  %33 = load ptr, ptr %4, align 8, !tbaa !3
  %34 = call ptr @lv_display_get_layer_bottom(ptr noundef %33)
  %35 = load ptr, ptr %5, align 8, !tbaa !35
  %36 = call ptr @lv_indev_search_obj(ptr noundef %34, ptr noundef %35)
  store ptr %36, ptr getelementptr inbounds nuw (%struct._lv_global_t, ptr @lv_global, i32 0, i32 14), align 8, !tbaa !76
  %37 = load ptr, ptr getelementptr inbounds nuw (%struct._lv_global_t, ptr @lv_global, i32 0, i32 14), align 8, !tbaa !76
  store ptr %37, ptr %3, align 8
  br label %38

38:                                               ; preds = %32, %30, %21, %12
  %39 = load ptr, ptr %3, align 8
  ret ptr %39
}