; Function Attrs: nounwind uwtable
define internal fastcc ptr @pointer_search_obj(ptr noundef %0, ptr noundef nonnull readonly captures(none) %1) unnamed_addr #0 {
  %3 = tail call ptr @lv_display_get_layer_sys(ptr noundef %0) #11
  %4 = tail call ptr @lv_indev_search_obj(ptr noundef %3, ptr noundef nonnull %1)
  store ptr %4, ptr getelementptr inbounds nuw (i8, ptr @lv_global, i64 160), align 8, !tbaa !66
  %.not = icmp eq ptr %4, null
  br i1 %.not, label %5, label %14

5:                                                ; preds = %2
  %6 = tail call ptr @lv_display_get_layer_top(ptr noundef %0) #11
  %7 = tail call ptr @lv_indev_search_obj(ptr noundef %6, ptr noundef nonnull %1)
  store ptr %7, ptr getelementptr inbounds nuw (i8, ptr @lv_global, i64 160), align 8, !tbaa !66
  %.not12 = icmp eq ptr %7, null
  br i1 %.not12, label %8, label %14

8:                                                ; preds = %5
  %9 = tail call ptr @lv_display_get_screen_active(ptr noundef %0) #11
  %10 = tail call ptr @lv_indev_search_obj(ptr noundef %9, ptr noundef nonnull %1)
  store ptr %10, ptr getelementptr inbounds nuw (i8, ptr @lv_global, i64 160), align 8, !tbaa !66
  %.not13 = icmp eq ptr %10, null
  br i1 %.not13, label %11, label %14

11:                                               ; preds = %8
  %12 = tail call ptr @lv_display_get_layer_bottom(ptr noundef %0) #11
  %13 = tail call ptr @lv_indev_search_obj(ptr noundef %12, ptr noundef nonnull %1)
  store ptr %13, ptr getelementptr inbounds nuw (i8, ptr @lv_global, i64 160), align 8, !tbaa !66
  br label %14

14:                                               ; preds = %8, %5, %2, %11
  %.0 = phi ptr [ %13, %11 ], [ %4, %2 ], [ %7, %5 ], [ %10, %8 ]
  ret ptr %.0
}